target datalayout = "e-m:e-p270:32:32-p271:32:32-p272:64:64-i64:64-i128:128-f80:128-n8:16:32:64-S128"
target triple = "x86_64-pc-linux-gnu"

%struct.H5O_cache_ud_t = type { i8, i32, i64, ptr, i8, %struct.H5O_common_cache_ud_t }
%struct.H5O_common_cache_ud_t = type { ptr, i32, i32, ptr, i64 }

@H5O_init_g = external global i8, align 1
@H5_libterm_g = external global i8, align 1
@.str.3 = private unnamed_addr constant [102 x i8] c"generated/home/dtcxzyw/WorkSpace/Projects/compilers/llvm-opt-benchmark/bench/hdf5/hdf5/src/H5Ocache.c\00", align 1
@H5E_OHDR_g = external global i64, align 8
@__func__.H5O__cache_verify_chksum = private unnamed_addr constant [25 x i8] c"H5O__cache_verify_chksum\00", align 1
@H5E_CANTGET_g = external global i64, align 8
@.str.16 = private unnamed_addr constant [20 x i8] c"can't get checksums\00", align 1

; Function Attrs: nounwind uwtable
define internal i32 @H5O__cache_verify_chksum(ptr noundef %0, i64 noundef %1, ptr noundef %2) #0 {
  %4 = alloca i32, align 4
  %5 = alloca ptr, align 8
  %6 = alloca i64, align 8
  %7 = alloca ptr, align 8
  %8 = alloca ptr, align 8
  %9 = alloca ptr, align 8
  %10 = alloca i32, align 4
  %11 = alloca i8, align 1
  %12 = alloca i32, align 4
  %13 = alloca i32, align 4
  %14 = alloca i32, align 4
  store ptr %0, ptr %5, align 8, !tbaa !3
  store i64 %1, ptr %6, align 8, !tbaa !13
  store ptr %2, ptr %7, align 8, !tbaa !3
  call void @llvm.lifetime.start.p0(i64 8, ptr %8) #7
  %15 = load ptr, ptr %5, align 8, !tbaa !3
  store ptr %15, ptr %8, align 8, !tbaa !39
  call void @llvm.lifetime.start.p0(i64 8, ptr %9) #7
  %16 = load ptr, ptr %7, align 8, !tbaa !3
  store ptr %16, ptr %9, align 8, !tbaa !15
  call void @llvm.lifetime.start.p0(i64 4, ptr %10) #7
  store i32 1, ptr %10, align 4, !tbaa !17
  call void @llvm.lifetime.start.p0(i64 1, ptr %11) #7
  store i8 0, ptr %11, align 1, !tbaa !9
  %17 = load i8, ptr @H5O_init_g, align 1, !tbaa !9, !range !11, !noundef !12
  %18 = trunc i8 %17 to i1
  br i1 %18, label %23, label %19

19:                                               ; preds = %3
  %20 = load i8, ptr @H5_libterm_g, align 1, !tbaa !9, !range !11, !noundef !12
  %21 = trunc i8 %20 to i1
  %22 = xor i1 %21, true
  br label %23

23:                                               ; preds = %19, %3
  %24 = phi i1 [ true, %3 ], [ %22, %19 ]
  %25 = xor i1 %24, true
  %26 = xor i1 %25, true
  %27 = zext i1 %26 to i32
  %28 = sext i32 %27 to i64
  %29 = call i64 @llvm.expect.i64(i64 %28, i64 1)
  %30 = icmp ne i64 %29, 0
  br i1 %30, label %31, label %73

31:                                               ; preds = %23
  %32 = load ptr, ptr %9, align 8, !tbaa !15
  %33 = getelementptr inbounds nuw %struct.H5O_cache_ud_t, ptr %32, i32 0, i32 4
  %34 = load i8, ptr %33, align 8, !tbaa !38
  %35 = zext i8 %34 to i32
  %36 = icmp ne i32 %35, 1
  br i1 %36, label %37, label %70

37:                                               ; preds = %31
  call void @llvm.lifetime.start.p0(i64 4, ptr %12) #7
  call void @llvm.lifetime.start.p0(i64 4, ptr %13) #7
  %38 = load ptr, ptr %8, align 8, !tbaa !39
  %39 = load i64, ptr %6, align 8, !tbaa !13
  %40 = call i32 @H5F_get_checksums(ptr noundef %38, i64 noundef %39, ptr noundef %12, ptr noundef %13)
  %41 = icmp slt i32 %40, 0
  br i1 %41, label %42, label %61

42:                                               ; preds = %37
  br label %43

43:                                               ; preds = %42
  br label %44

44:                                               ; preds = %43
  br label %45

45:                                               ; preds = %44
  %46 = load i64, ptr @H5E_OHDR_g, align 8, !tbaa !13
  %47 = load i64, ptr @H5E_CANTGET_g, align 8, !tbaa !13
  %48 = call i32 (ptr, ptr, i32, i64, i64, ptr, ...) @H5E_printf_stack(ptr noundef @.str.3, ptr noundef @__func__.H5O__cache_verify_chksum, i32 noundef 235, i64 noundef %46, i64 noundef %47, ptr noundef @.str.16)
  br label %49

49:                                               ; preds = %45
  br label %50

50:                                               ; preds = %49
  store i8 1, ptr %11, align 1, !tbaa !9
  %51 = load i8, ptr %11, align 1, !tbaa !9, !range !11, !noundef !12
  %52 = trunc i8 %51 to i1
  %53 = zext i1 %52 to i8
  store i8 %53, ptr %11, align 1, !tbaa !9
  br label %54

54:                                               ; preds = %50
  br label %55

55:                                               ; preds = %54
  br label %56

56:                                               ; preds = %55
  store i32 -1, ptr %10, align 4, !tbaa !17
  store i32 10, ptr %14, align 4
  br label %67

57:                                               ; No predecessors!
  br label %58

58:                                               ; preds = %57
  br label %59

59:                                               ; preds = %58
  br label %60

60:                                               ; preds = %59
  br label %61

61:                                               ; preds = %60, %37
  %62 = load i32, ptr %12, align 4, !tbaa !17
  %63 = load i32, ptr %13, align 4, !tbaa !17
  %64 = icmp ne i32 %62, %63
  br i1 %64, label %65, label %66

65:                                               ; preds = %61
  store i32 0, ptr %10, align 4, !tbaa !17
  br label %66

66:                                               ; preds = %65, %61
  store i32 0, ptr %14, align 4
  br label %67

67:                                               ; preds = %56, %66
  call void @llvm.lifetime.end.p0(i64 4, ptr %13) #7
  call void @llvm.lifetime.end.p0(i64 4, ptr %12) #7
  %68 = load i32, ptr %14, align 4
  switch i32 %68, label %75 [
    i32 0, label %69
    i32 10, label %72
  ]

69:                                               ; preds = %67
  br label %71

70:                                               ; preds = %31
  br label %71

71:                                               ; preds = %70, %69
  br label %72

72:                                               ; preds = %71, %67
  br label %73

73:                                               ; preds = %72, %23
  %74 = load i32, ptr %10, align 4, !tbaa !17
  store i32 %74, ptr %4, align 4
  store i32 1, ptr %14, align 4
  br label %75

75:                                               ; preds = %73, %67
  call void @llvm.lifetime.end.p0(i64 1, ptr %11) #7
  call void @llvm.lifetime.end.p0(i64 4, ptr %10) #7
  call void @llvm.lifetime.end.p0(i64 8, ptr %9) #7
  call void @llvm.lifetime.end.p0(i64 8, ptr %8) #7
  %76 = load i32, ptr %4, align 4
  ret i32 %76
}