; Function Attrs: nounwind uwtable
define internal range(i32 -1, 2) i32 @H5O__cache_verify_chksum(ptr noundef %0, i64 noundef %1, ptr noundef readonly captures(none) %2) #1 {
  %4 = alloca i32, align 4
  %5 = alloca i32, align 4
  %6 = load i8, ptr @H5O_init_g, align 1, !tbaa !3, !range !7, !noundef !8
  %7 = trunc nuw i8 %6 to i1
  %8 = load i8, ptr @H5_libterm_g, align 1, !range !7
  %9 = trunc nuw i8 %8 to i1
  %10 = xor i1 %9, true
  %11 = select i1 %7, i1 true, i1 %10
  br i1 %11, label %12, label %26, !prof !9

12:                                               ; preds = %3
  %13 = getelementptr inbounds nuw i8, ptr %2, i64 24
  %14 = load i8, ptr %13, align 8, !tbaa !34
  %.not = icmp eq i8 %14, 1
  br i1 %.not, label %26, label %15

15:                                               ; preds = %12
  call void @llvm.lifetime.start.p0(i64 4, ptr nonnull %4) #9
  call void @llvm.lifetime.start.p0(i64 4, ptr nonnull %5) #9
  %16 = call i32 @H5F_get_checksums(ptr noundef %0, i64 noundef %1, ptr noundef nonnull %4, ptr noundef nonnull %5) #9
  %17 = icmp slt i32 %16, 0
  br i1 %17, label %18, label %22

18:                                               ; preds = %15
  %19 = load i64, ptr @H5E_OHDR_g, align 8, !tbaa !10
  %20 = load i64, ptr @H5E_CANTGET_g, align 8, !tbaa !10
  %21 = call i32 (ptr, ptr, i32, i64, i64, ptr, ...) @H5E_printf_stack(ptr noundef nonnull @.str.3, ptr noundef nonnull @__func__.H5O__cache_verify_chksum, i32 noundef 235, i64 noundef %19, i64 noundef %20, ptr noundef nonnull @.str.16) #9
  br label %25

22:                                               ; preds = %15
  %23 = load i32, ptr %4, align 4, !tbaa !35
  %24 = load i32, ptr %5, align 4, !tbaa !35
  %.not10 = icmp eq i32 %23, %24
  %spec.select = zext i1 %.not10 to i32
  br label %25

25:                                               ; preds = %22, %18
  %.1 = phi i32 [ -1, %18 ], [ %spec.select, %22 ]
  call void @llvm.lifetime.end.p0(i64 4, ptr nonnull %5) #9
  call void @llvm.lifetime.end.p0(i64 4, ptr nonnull %4) #9
  br label %26

26:                                               ; preds = %25, %3, %12
  %.09 = phi i32 [ %.1, %25 ], [ 1, %12 ], [ 1, %3 ]
  ret i32 %.09
}